target datalayout = "e-m:e-p270:32:32-p271:32:32-p272:64:64-i64:64-i128:128-f80:128-n8:16:32:64-S128"
target triple = "x86_64-pc-linux-gnu"

%struct.LVRelState = type { ptr, ptr, i32, ptr, ptr, i8, i8, i8, i8, i8, i8, %struct.VacuumCutoffs, ptr, i32, i32, i8, ptr, ptr, ptr, ptr, i32, i16, i32, i8, ptr, ptr, i32, i32, i32, i32, i32, i32, i32, i32, i32, i32, i32, double, double, ptr, i32, i64, i64, i64, i64, i64, i64, i32, i32, i8, i8, i32, i32, i32, i32, i32 }
%struct.VacuumCutoffs = type { i32, i32, i32, i32, i32, i32 }

@VacuumFailsafeActive = external global i8, align 1
@.str.1 = private unnamed_addr constant [13 x i8] c"vacuumlazy.c\00", align 1
@__const.lazy_check_wraparound_failsafe.progress_index = private unnamed_addr constant [2 x i32] [i32 8, i32 9], align 4
@.str.35 = private unnamed_addr constant [90 x i8] c"bypassing nonessential maintenance of table \22%s.%s.%s\22 as a failsafe after %d index scans\00", align 1
@.str.36 = private unnamed_addr constant [63 x i8] c"The table's relfrozenxid or relminmxid is too far in the past.\00", align 1
@.str.37 = private unnamed_addr constant [198 x i8] c"Consider increasing configuration parameter \22maintenance_work_mem\22 or \22autovacuum_work_mem\22.\0AYou might also need to consider other ways for VACUUM to keep up with the allocation of transaction IDs.\00", align 1
@__func__.lazy_check_wraparound_failsafe = private unnamed_addr constant [31 x i8] c"lazy_check_wraparound_failsafe\00", align 1
@VacuumCostActive = external global i8, align 1
@VacuumCostBalance = external global i32, align 4

; Function Attrs: nounwind uwtable
define internal zeroext i1 @lazy_check_wraparound_failsafe(ptr noundef %0) #0 {
  %2 = alloca i1, align 1
  %3 = alloca ptr, align 8
  %4 = alloca [2 x i32], align 4
  %5 = alloca [2 x i64], align 16
  store ptr %0, ptr %3, align 8
  %6 = load i8, ptr @VacuumFailsafeActive, align 1, !range !4, !noundef !5
  %7 = trunc i8 %6 to i1
  br i1 %7, label %8, label %9

8:                                                ; preds = %1
  store i1 true, ptr %2, align 1
  br label %55

9:                                                ; preds = %1
  %10 = load ptr, ptr %3, align 8
  %11 = getelementptr inbounds nuw %struct.LVRelState, ptr %10, i32 0, i32 11
  %12 = call zeroext i1 @vacuum_xid_failsafe_check(ptr noundef %11)
  %13 = zext i1 %12 to i32
  %14 = icmp ne i32 %13, 0
  %15 = zext i1 %14 to i32
  %16 = sext i32 %15 to i64
  %17 = call i64 @llvm.expect.i64(i64 %16, i64 0)
  %18 = icmp ne i64 %17, 0
  br i1 %18, label %19, label %54

19:                                               ; preds = %9
  call void @llvm.lifetime.start.p0(i64 8, ptr %4) #10
  call void @llvm.memcpy.p0.p0.i64(ptr align 4 %4, ptr align 4 @__const.lazy_check_wraparound_failsafe.progress_index, i64 8, i1 false)
  call void @llvm.lifetime.start.p0(i64 16, ptr %5) #10
  call void @llvm.memset.p0.i64(ptr align 16 %5, i8 0, i64 16, i1 false)
  store i8 1, ptr @VacuumFailsafeActive, align 1
  %20 = load ptr, ptr %3, align 8
  %21 = getelementptr inbounds nuw %struct.LVRelState, ptr %20, i32 0, i32 3
  store ptr null, ptr %21, align 8
  %22 = load ptr, ptr %3, align 8
  %23 = getelementptr inbounds nuw %struct.LVRelState, ptr %22, i32 0, i32 8
  store i8 0, ptr %23, align 1
  %24 = load ptr, ptr %3, align 8
  %25 = getelementptr inbounds nuw %struct.LVRelState, ptr %24, i32 0, i32 9
  store i8 0, ptr %25, align 4
  %26 = load ptr, ptr %3, align 8
  %27 = getelementptr inbounds nuw %struct.LVRelState, ptr %26, i32 0, i32 10
  store i8 0, ptr %27, align 1
  %28 = getelementptr inbounds [2 x i32], ptr %4, i64 0, i64 0
  %29 = getelementptr inbounds [2 x i64], ptr %5, i64 0, i64 0
  call void @pgstat_progress_update_multi_param(i32 noundef 2, ptr noundef %28, ptr noundef %29)
  br label %30

30:                                               ; preds = %19
  br i1 false, label %31, label %33

31:                                               ; preds = %30
  %32 = call zeroext i1 @errstart_cold(i32 noundef 19, ptr noundef null) #11
  br i1 %32, label %35, label %51

33:                                               ; preds = %30
  %34 = call zeroext i1 @errstart(i32 noundef 19, ptr noundef null)
  br i1 %34, label %35, label %51

35:                                               ; preds = %33, %31
  %36 = load ptr, ptr %3, align 8
  %37 = getelementptr inbounds nuw %struct.LVRelState, ptr %36, i32 0, i32 16
  %38 = load ptr, ptr %37, align 8
  %39 = load ptr, ptr %3, align 8
  %40 = getelementptr inbounds nuw %struct.LVRelState, ptr %39, i32 0, i32 17
  %41 = load ptr, ptr %40, align 8
  %42 = load ptr, ptr %3, align 8
  %43 = getelementptr inbounds nuw %struct.LVRelState, ptr %42, i32 0, i32 18
  %44 = load ptr, ptr %43, align 8
  %45 = load ptr, ptr %3, align 8
  %46 = getelementptr inbounds nuw %struct.LVRelState, ptr %45, i32 0, i32 40
  %47 = load i32, ptr %46, align 8
  %48 = call i32 (ptr, ...) @errmsg(ptr noundef @.str.35, ptr noundef %38, ptr noundef %41, ptr noundef %44, i32 noundef %47)
  %49 = call i32 (ptr, ...) @errdetail(ptr noundef @.str.36)
  %50 = call i32 (ptr, ...) @errhint(ptr noundef @.str.37)
  call void @errfinish(ptr noundef @.str.1, i32 noundef 2969, ptr noundef @__func__.lazy_check_wraparound_failsafe)
  br label %51

51:                                               ; preds = %35, %33, %31
  br label %52

52:                                               ; preds = %51
  br label %53

53:                                               ; preds = %52
  store i8 0, ptr @VacuumCostActive, align 1
  store i32 0, ptr @VacuumCostBalance, align 4
  store i1 true, ptr %2, align 1
  call void @llvm.lifetime.end.p0(i64 16, ptr %5) #10
  call void @llvm.lifetime.end.p0(i64 8, ptr %4) #10
  br label %55

54:                                               ; preds = %9
  store i1 false, ptr %2, align 1
  br label %55

55:                                               ; preds = %54, %53, %8
  %56 = load i1, ptr %2, align 1
  ret i1 %56
}