; Function Attrs: nounwind uwtable
define internal fastcc noundef zeroext i1 @lazy_check_wraparound_failsafe(ptr noundef %0) unnamed_addr #0 {
  %2 = alloca [2 x i32], align 8
  %3 = alloca [2 x i64], align 16
  %4 = load i8, ptr @VacuumFailsafeActive, align 1, !range !4, !noundef !5
  %5 = trunc nuw i8 %4 to i1
  br i1 %5, label %28, label %6

6:                                                ; preds = %1
  %7 = getelementptr inbounds nuw i8, ptr %0, i64 48
  %8 = tail call zeroext i1 @vacuum_xid_failsafe_check(ptr noundef nonnull %7) #10
  br i1 %8, label %9, label %28, !prof !18

9:                                                ; preds = %6
  call void @llvm.lifetime.start.p0(i64 8, ptr nonnull %2) #10
  store i64 38654705672, ptr %2, align 8
  call void @llvm.lifetime.start.p0(i64 16, ptr nonnull %3) #10
  call void @llvm.memset.p0.i64(ptr noundef nonnull align 16 dereferenceable(16) %3, i8 0, i64 16, i1 false)
  store i8 1, ptr @VacuumFailsafeActive, align 1
  %10 = getelementptr inbounds nuw i8, ptr %0, i64 24
  store ptr null, ptr %10, align 8
  %11 = getelementptr inbounds nuw i8, ptr %0, i64 43
  store i8 0, ptr %11, align 1
  %12 = getelementptr inbounds nuw i8, ptr %0, i64 44
  store i8 0, ptr %12, align 4
  %13 = getelementptr inbounds nuw i8, ptr %0, i64 45
  store i8 0, ptr %13, align 1
  call void @pgstat_progress_update_multi_param(i32 noundef 2, ptr noundef nonnull %2, ptr noundef nonnull %3) #10
  %14 = call zeroext i1 @errstart(i32 noundef 19, ptr noundef null) #10
  br i1 %14, label %15, label %27

15:                                               ; preds = %9
  %16 = getelementptr inbounds nuw i8, ptr %0, i64 96
  %17 = load ptr, ptr %16, align 8
  %18 = getelementptr inbounds nuw i8, ptr %0, i64 104
  %19 = load ptr, ptr %18, align 8
  %20 = getelementptr inbounds nuw i8, ptr %0, i64 112
  %21 = load ptr, ptr %20, align 8
  %22 = getelementptr inbounds nuw i8, ptr %0, i64 232
  %23 = load i32, ptr %22, align 8
  %24 = call i32 (ptr, ...) @errmsg(ptr noundef nonnull @.str.35, ptr noundef %17, ptr noundef %19, ptr noundef %21, i32 noundef %23) #10
  %25 = call i32 (ptr, ...) @errdetail(ptr noundef nonnull @.str.36) #10
  %26 = call i32 (ptr, ...) @errhint(ptr noundef nonnull @.str.37) #10
  call void @errfinish(ptr noundef nonnull @.str.1, i32 noundef 2969, ptr noundef nonnull @__func__.lazy_check_wraparound_failsafe) #10
  br label %27

27:                                               ; preds = %15, %9
  store i8 0, ptr @VacuumCostActive, align 1
  store i32 0, ptr @VacuumCostBalance, align 4
  call void @llvm.lifetime.end.p0(i64 16, ptr nonnull %3) #10
  call void @llvm.lifetime.end.p0(i64 8, ptr nonnull %2) #10
  br label %28

28:                                               ; preds = %6, %1, %27
  %.0 = phi i1 [ true, %27 ], [ true, %1 ], [ false, %6 ]
  ret i1 %.0
}